target datalayout = "e-m:e-p270:32:32-p271:32:32-p272:64:64-i64:64-i128:128-f80:128-n8:16:32:64-S128"
target triple = "x86_64-pc-linux-gnu"

%struct._packet_info = type { ptr, ptr, i32, i32, %struct.nstime_t, %struct.nstime_t, %struct.nstime_t, i8, ptr, ptr, ptr, ptr, %struct._address, %struct._address, %struct._address, %struct._address, %struct._address, %struct._address, i32, ptr, i8, [3 x i8], %struct.anon, i32, i32, i32, i32, ptr, i8, ptr, ptr, i16, i16, i32, i32, i16, i32, i32, ptr, ptr, ptr, i8, i8, i16, i16, i16, i32, i16, i16, ptr, ptr, ptr, ptr, ptr, i32, i32 }
%struct.nstime_t = type { i64, i32 }
%struct._address = type { i32, i32, ptr, ptr }
%struct.anon = type { i8, [3 x i8] }

@hf_knet_messageid = internal global i32 0, align 4
@.str.56 = private unnamed_addr constant [8 x i8] c"%s (%d)\00", align 1
@.str.57 = private unnamed_addr constant [32 x i8] c"AppData or Malformed Message ID\00", align 1
@.str.58 = private unnamed_addr constant [3 x i8] c", \00", align 1
@.str.59 = private unnamed_addr constant [8 x i8] c"AppData\00", align 1

; Function Attrs: null_pointer_is_valid sspstrong uwtable
define internal i32 @dissect_messageid(ptr noundef %0, ptr noundef %1, ptr noundef %2, ptr noundef %3, i1 noundef zeroext %4) #0 {
  %6 = alloca ptr, align 8
  %7 = alloca ptr, align 8
  %8 = alloca ptr, align 8
  %9 = alloca ptr, align 8
  %10 = alloca i8, align 1
  %11 = alloca i32, align 4
  %12 = alloca i8, align 1
  store ptr %0, ptr %6, align 8
  store ptr %1, ptr %7, align 8
  store ptr %2, ptr %8, align 8
  store ptr %3, ptr %9, align 8
  %13 = zext i1 %4 to i8
  store i8 %13, ptr %10, align 1
  call void @llvm.lifetime.start.p0(i64 4, ptr %11) #4
  call void @llvm.lifetime.start.p0(i64 1, ptr %12) #4
  %14 = load ptr, ptr %6, align 8
  %15 = load ptr, ptr %7, align 8
  %16 = load i32, ptr %15, align 4
  %17 = call zeroext i8 @tvb_get_uint8(ptr noundef %14, i32 noundef %16)
  store i8 %17, ptr %12, align 1
  %18 = load i8, ptr %12, align 1
  %19 = zext i8 %18 to i32
  switch i32 %19, label %21 [
    i32 255, label %20
    i32 254, label %20
    i32 253, label %20
    i32 252, label %20
    i32 251, label %20
  ]

20:                                               ; preds = %5, %5, %5, %5, %5
  store i32 4, ptr %11, align 4
  br label %22

21:                                               ; preds = %5
  store i32 1, ptr %11, align 4
  br label %22

22:                                               ; preds = %21, %20
  %23 = load ptr, ptr %8, align 8
  %24 = load i32, ptr @hf_knet_messageid, align 4
  %25 = load ptr, ptr %6, align 8
  %26 = load ptr, ptr %7, align 8
  %27 = load i32, ptr %26, align 4
  %28 = load i32, ptr %11, align 4
  %29 = load i8, ptr %12, align 1
  %30 = zext i8 %29 to i32
  %31 = load i8, ptr %12, align 1
  %32 = zext i8 %31 to i32
  %33 = call ptr @val_to_str_const(i32 noundef %32, ptr noundef @packettypenames, ptr noundef @.str.57)
  %34 = load i8, ptr %12, align 1
  %35 = zext i8 %34 to i32
  %36 = call ptr (ptr, i32, ptr, i32, i32, i32, ptr, ...) @proto_tree_add_uint_format_value(ptr noundef %23, i32 noundef %24, ptr noundef %25, i32 noundef %27, i32 noundef %28, i32 noundef %30, ptr noundef @.str.56, ptr noundef %33, i32 noundef %35)
  %37 = load i8, ptr %10, align 1, !range !8, !noundef !9
  %38 = trunc i8 %37 to i1
  br i1 %38, label %39, label %48

39:                                               ; preds = %22
  %40 = load ptr, ptr %9, align 8
  %41 = getelementptr inbounds nuw %struct._packet_info, ptr %40, i32 0, i32 1
  %42 = load ptr, ptr %41, align 8
  %43 = load i8, ptr %12, align 1
  %44 = zext i8 %43 to i32
  %45 = call ptr @val_to_str_const(i32 noundef %44, ptr noundef @packettypenames, ptr noundef @.str.59)
  %46 = load i8, ptr %12, align 1
  %47 = zext i8 %46 to i32
  call void (ptr, i32, ptr, ptr, ...) @col_append_sep_fstr(ptr noundef %42, i32 noundef 25, ptr noundef @.str.58, ptr noundef @.str.56, ptr noundef %45, i32 noundef %47)
  br label %57

48:                                               ; preds = %22
  %49 = load ptr, ptr %9, align 8
  %50 = getelementptr inbounds nuw %struct._packet_info, ptr %49, i32 0, i32 1
  %51 = load ptr, ptr %50, align 8
  %52 = load i8, ptr %12, align 1
  %53 = zext i8 %52 to i32
  %54 = call ptr @val_to_str_const(i32 noundef %53, ptr noundef @packettypenames, ptr noundef @.str.59)
  %55 = load i8, ptr %12, align 1
  %56 = zext i8 %55 to i32
  call void (ptr, i32, ptr, ...) @col_append_fstr(ptr noundef %51, i32 noundef 25, ptr noundef @.str.56, ptr noundef %54, i32 noundef %56)
  br label %57

57:                                               ; preds = %48, %39
  %58 = load i32, ptr %11, align 4
  %59 = load ptr, ptr %7, align 8
  %60 = load i32, ptr %59, align 4
  %61 = add i32 %60, %58
  store i32 %61, ptr %59, align 4
  %62 = load i8, ptr %12, align 1
  %63 = zext i8 %62 to i32
  call void @llvm.lifetime.end.p0(i64 1, ptr %12) #4
  call void @llvm.lifetime.end.p0(i64 4, ptr %11) #4
  ret i32 %63
}