; Function Attrs: null_pointer_is_valid sspstrong uwtable
define internal fastcc range(i32 0, 256) i32 @dissect_messageid(ptr noundef %0, ptr noundef captures(none) %1, ptr noundef %2, ptr noundef readonly captures(none) %3, i1 noundef zeroext %4) unnamed_addr #0 {
  %6 = load i32, ptr %1, align 4
  %7 = tail call zeroext i8 @tvb_get_uint8(ptr noundef %0, i32 noundef %6)
  %8 = zext i8 %7 to i32
  %switch = icmp ugt i8 %7, -6
  %. = select i1 %switch, i32 4, i32 1
  %9 = load i32, ptr @hf_knet_messageid, align 4
  %10 = load i32, ptr %1, align 4
  %11 = tail call ptr @val_to_str_const(i32 noundef %8, ptr noundef nonnull @packettypenames, ptr noundef nonnull @.str.57)
  %12 = tail call ptr (ptr, i32, ptr, i32, i32, i32, ptr, ...) @proto_tree_add_uint_format_value(ptr noundef %2, i32 noundef %9, ptr noundef %0, i32 noundef %10, i32 noundef %., i32 noundef %8, ptr noundef nonnull @.str.56, ptr noundef %11, i32 noundef %8)
  %13 = getelementptr inbounds nuw i8, ptr %3, i64 8
  %14 = load ptr, ptr %13, align 8
  %15 = tail call ptr @val_to_str_const(i32 noundef %8, ptr noundef nonnull @packettypenames, ptr noundef nonnull @.str.59)
  br i1 %4, label %16, label %17

16:                                               ; preds = %5
  tail call void (ptr, i32, ptr, ptr, ...) @col_append_sep_fstr(ptr noundef %14, i32 noundef 25, ptr noundef nonnull @.str.58, ptr noundef nonnull @.str.56, ptr noundef %15, i32 noundef %8)
  br label %18

17:                                               ; preds = %5
  tail call void (ptr, i32, ptr, ...) @col_append_fstr(ptr noundef %14, i32 noundef 25, ptr noundef nonnull @.str.56, ptr noundef %15, i32 noundef %8)
  br label %18

18:                                               ; preds = %17, %16
  %19 = load i32, ptr %1, align 4
  %20 = add i32 %19, %.
  store i32 %20, ptr %1, align 4
  ret i32 %8
}